target datalayout = "e-m:e-p270:32:32-p271:32:32-p272:64:64-i64:64-i128:128-f80:128-n8:16:32:64-S128"
target triple = "x86_64-pc-linux-gnu"

%struct.expert_field = type { i32, i32 }
%struct._header_field_info = type { ptr, ptr, i32, i32, ptr, i64, ptr, i32, i32, i32, i32, ptr }
%struct._asn1_ctx_t = type { i32, i32, i8, ptr, ptr, ptr, ptr, ptr, %struct.anon, %struct.anon.2, %struct.anon.3, ptr }
%struct.anon = type { i32, i8, i8, i8, ptr, ptr, i32, i32, ptr, ptr, ptr, %union.anon }
%union.anon = type { %struct.anon.0 }
%struct.anon.0 = type { ptr }
%struct.anon.2 = type { ptr, ptr, ptr }
%struct.anon.3 = type { i32, i8, ptr, i32, i32, ptr, ptr, ptr, %union.anon.4 }
%union.anon.4 = type { %struct.anon.5 }
%struct.anon.5 = type { ptr }

@ei_ber_error_length = internal global %struct.expert_field zeroinitializer, align 4
@.str.9 = private unnamed_addr constant [48 x i8] c"BER Error: %s: length of item (%u) is not valid\00", align 1

; Function Attrs: null_pointer_is_valid sspstrong uwtable
define i32 @dissect_ber_boolean(i1 noundef zeroext %0, ptr noundef %1, ptr noundef %2, ptr noundef %3, i32 noundef %4, i32 noundef %5, ptr noundef %6) #0 {
  %8 = alloca i8, align 1
  %9 = alloca ptr, align 8
  %10 = alloca ptr, align 8
  %11 = alloca ptr, align 8
  %12 = alloca i32, align 4
  %13 = alloca i32, align 4
  %14 = alloca ptr, align 8
  %15 = alloca i8, align 1
  %16 = alloca i8, align 1
  %17 = alloca i32, align 4
  %18 = alloca i32, align 4
  %19 = alloca i8, align 1
  %20 = alloca ptr, align 8
  %21 = alloca i32, align 4
  %22 = zext i1 %0 to i8
  store i8 %22, ptr %8, align 1
  store ptr %1, ptr %9, align 8
  store ptr %2, ptr %10, align 8
  store ptr %3, ptr %11, align 8
  store i32 %4, ptr %12, align 4
  store i32 %5, ptr %13, align 4
  store ptr %6, ptr %14, align 8
  call void @llvm.lifetime.start.p0(i64 1, ptr %15) #12
  call void @llvm.lifetime.start.p0(i64 1, ptr %16) #12
  call void @llvm.lifetime.start.p0(i64 4, ptr %17) #12
  call void @llvm.lifetime.start.p0(i64 4, ptr %18) #12
  call void @llvm.lifetime.start.p0(i64 1, ptr %19) #12
  call void @llvm.lifetime.start.p0(i64 8, ptr %20) #12
  %23 = load i8, ptr %8, align 1, !range !6, !noundef !7
  %24 = trunc i8 %23 to i1
  br i1 %24, label %40, label %25

25:                                               ; preds = %7
  %26 = load ptr, ptr %9, align 8
  %27 = getelementptr inbounds nuw %struct._asn1_ctx_t, ptr %26, i32 0, i32 3
  %28 = load ptr, ptr %27, align 8
  %29 = load ptr, ptr %10, align 8
  %30 = load ptr, ptr %11, align 8
  %31 = load i32, ptr %12, align 4
  %32 = call i32 @dissect_ber_identifier(ptr noundef %28, ptr noundef %29, ptr noundef %30, i32 noundef %31, ptr noundef %15, ptr noundef %16, ptr noundef %17)
  store i32 %32, ptr %12, align 4
  %33 = load ptr, ptr %9, align 8
  %34 = getelementptr inbounds nuw %struct._asn1_ctx_t, ptr %33, i32 0, i32 3
  %35 = load ptr, ptr %34, align 8
  %36 = load ptr, ptr %10, align 8
  %37 = load ptr, ptr %11, align 8
  %38 = load i32, ptr %12, align 4
  %39 = call i32 @dissect_ber_length(ptr noundef %35, ptr noundef %36, ptr noundef %37, i32 noundef %38, ptr noundef %18, ptr noundef null)
  store i32 %39, ptr %12, align 4
  br label %51

40:                                               ; preds = %7
  call void @llvm.lifetime.start.p0(i64 4, ptr %21) #12
  %41 = load ptr, ptr %11, align 8
  %42 = load i32, ptr %12, align 4
  %43 = call i32 @tvb_reported_length_remaining(ptr noundef %41, i32 noundef %42)
  store i32 %43, ptr %21, align 4
  %44 = load i32, ptr %21, align 4
  %45 = icmp sgt i32 %44, 0
  br i1 %45, label %46, label %48

46:                                               ; preds = %40
  %47 = load i32, ptr %21, align 4
  br label %49

48:                                               ; preds = %40
  br label %49

49:                                               ; preds = %48, %46
  %50 = phi i32 [ %47, %46 ], [ 0, %48 ]
  store i32 %50, ptr %18, align 4
  call void @llvm.lifetime.end.p0(i64 4, ptr %21) #12
  br label %51

51:                                               ; preds = %49, %25
  %52 = load i32, ptr %18, align 4
  %53 = icmp eq i32 %52, 1
  br i1 %53, label %54, label %97

54:                                               ; preds = %51
  %55 = load ptr, ptr %11, align 8
  %56 = load i32, ptr %12, align 4
  %57 = call zeroext i8 @tvb_get_uint8(ptr noundef %55, i32 noundef %56)
  store i8 %57, ptr %19, align 1
  %58 = load i32, ptr %12, align 4
  %59 = add i32 %58, 1
  store i32 %59, ptr %12, align 4
  %60 = load ptr, ptr %9, align 8
  %61 = getelementptr inbounds nuw %struct._asn1_ctx_t, ptr %60, i32 0, i32 4
  store ptr null, ptr %61, align 8
  %62 = load i32, ptr %13, align 4
  %63 = icmp sgt i32 %62, 0
  br i1 %63, label %64, label %96

64:                                               ; preds = %54
  %65 = load i32, ptr %13, align 4
  %66 = call ptr @proto_registrar_get_nth(i32 noundef %65)
  store ptr %66, ptr %20, align 8
  %67 = load ptr, ptr %20, align 8
  %68 = getelementptr inbounds nuw %struct._header_field_info, ptr %67, i32 0, i32 2
  %69 = load i32, ptr %68, align 8
  %70 = icmp eq i32 %69, 2
  br i1 %70, label %71, label %82

71:                                               ; preds = %64
  %72 = load ptr, ptr %10, align 8
  %73 = load i32, ptr %13, align 4
  %74 = load ptr, ptr %11, align 8
  %75 = load i32, ptr %12, align 4
  %76 = sub i32 %75, 1
  %77 = load i8, ptr %19, align 1
  %78 = zext i8 %77 to i64
  %79 = call ptr @proto_tree_add_boolean(ptr noundef %72, i32 noundef %73, ptr noundef %74, i32 noundef %76, i32 noundef 1, i64 noundef %78)
  %80 = load ptr, ptr %9, align 8
  %81 = getelementptr inbounds nuw %struct._asn1_ctx_t, ptr %80, i32 0, i32 4
  store ptr %79, ptr %81, align 8
  br label %95

82:                                               ; preds = %64
  %83 = load ptr, ptr %10, align 8
  %84 = load i32, ptr %13, align 4
  %85 = load ptr, ptr %11, align 8
  %86 = load i32, ptr %12, align 4
  %87 = sub i32 %86, 1
  %88 = load i8, ptr %19, align 1
  %89 = zext i8 %88 to i32
  %90 = icmp ne i32 %89, 0
  %91 = select i1 %90, i32 1, i32 0
  %92 = call ptr @proto_tree_add_uint(ptr noundef %83, i32 noundef %84, ptr noundef %85, i32 noundef %87, i32 noundef 1, i32 noundef %91)
  %93 = load ptr, ptr %9, align 8
  %94 = getelementptr inbounds nuw %struct._asn1_ctx_t, ptr %93, i32 0, i32 4
  store ptr %92, ptr %94, align 8
  br label %95

95:                                               ; preds = %82, %71
  br label %96

96:                                               ; preds = %95, %54
  br label %118

97:                                               ; preds = %51
  store i8 0, ptr %19, align 1
  %98 = load ptr, ptr %9, align 8
  %99 = getelementptr inbounds nuw %struct._asn1_ctx_t, ptr %98, i32 0, i32 4
  store ptr null, ptr %99, align 8
  %100 = load i32, ptr %13, align 4
  %101 = icmp sgt i32 %100, 0
  br i1 %101, label %102, label %117

102:                                              ; preds = %97
  %103 = load i32, ptr %13, align 4
  %104 = call ptr @proto_registrar_get_nth(i32 noundef %103)
  store ptr %104, ptr %20, align 8
  %105 = load ptr, ptr %10, align 8
  %106 = load ptr, ptr %9, align 8
  %107 = getelementptr inbounds nuw %struct._asn1_ctx_t, ptr %106, i32 0, i32 3
  %108 = load ptr, ptr %107, align 8
  %109 = load ptr, ptr %11, align 8
  %110 = load i32, ptr %12, align 4
  %111 = load i32, ptr %18, align 4
  %112 = load ptr, ptr %20, align 8
  %113 = getelementptr inbounds nuw %struct._header_field_info, ptr %112, i32 0, i32 0
  %114 = load ptr, ptr %113, align 8
  %115 = load i32, ptr %18, align 4
  %116 = call ptr (ptr, ptr, ptr, ptr, i32, i32, ptr, ...) @proto_tree_add_expert_format(ptr noundef %105, ptr noundef %108, ptr noundef @ei_ber_error_length, ptr noundef %109, i32 noundef %110, i32 noundef %111, ptr noundef @.str.9, ptr noundef %114, i32 noundef %115)
  br label %117

117:                                              ; preds = %102, %97
  br label %118

118:                                              ; preds = %117, %96
  %119 = load ptr, ptr %14, align 8
  %120 = icmp ne ptr %119, null
  br i1 %120, label %121, label %129

121:                                              ; preds = %118
  %122 = load i8, ptr %19, align 1
  %123 = zext i8 %122 to i32
  %124 = icmp ne i32 %123, 0
  %125 = select i1 %124, i32 1, i32 0
  %126 = icmp ne i32 %125, 0
  %127 = load ptr, ptr %14, align 8
  %128 = zext i1 %126 to i8
  store i8 %128, ptr %127, align 1
  br label %129

129:                                              ; preds = %121, %118
  %130 = load i32, ptr %12, align 4
  call void @llvm.lifetime.end.p0(i64 8, ptr %20) #12
  call void @llvm.lifetime.end.p0(i64 1, ptr %19) #12
  call void @llvm.lifetime.end.p0(i64 4, ptr %18) #12
  call void @llvm.lifetime.end.p0(i64 4, ptr %17) #12
  call void @llvm.lifetime.end.p0(i64 1, ptr %16) #12
  call void @llvm.lifetime.end.p0(i64 1, ptr %15) #12
  ret i32 %130
}