; Function Attrs: null_pointer_is_valid sspstrong uwtable
define noundef i32 @dissect_ber_boolean(i1 noundef zeroext %0, ptr noundef captures(none) initializes((24, 32)) %1, ptr noundef %2, ptr noundef %3, i32 noundef %4, i32 noundef %5, ptr noundef writeonly captures(address_is_null) %6) local_unnamed_addr #0 {
  %8 = alloca i8, align 1
  %9 = alloca i8, align 1
  %10 = alloca i32, align 4
  %11 = alloca i32, align 4
  call void @llvm.lifetime.start.p0(i64 1, ptr nonnull %8) #14
  call void @llvm.lifetime.start.p0(i64 1, ptr nonnull %9) #14
  call void @llvm.lifetime.start.p0(i64 4, ptr nonnull %10) #14
  call void @llvm.lifetime.start.p0(i64 4, ptr nonnull %11) #14
  br i1 %0, label %15, label %12

12:                                               ; preds = %7
  %13 = call i32 @dissect_ber_identifier(ptr poison, ptr noundef %2, ptr noundef %3, i32 noundef %4, ptr noundef nonnull %8, ptr noundef nonnull %9, ptr noundef nonnull %10)
  %14 = call i32 @dissect_ber_length(ptr poison, ptr noundef %2, ptr noundef %3, i32 noundef %13, ptr noundef nonnull %11, ptr noundef null)
  %.pr = load i32, ptr %11, align 4
  br label %18

15:                                               ; preds = %7
  %16 = tail call i32 @tvb_reported_length_remaining(ptr noundef %3, i32 noundef %4)
  %17 = tail call i32 @llvm.smax.i32(i32 %16, i32 0)
  store i32 %17, ptr %11, align 4
  br label %18

18:                                               ; preds = %15, %12
  %19 = phi i32 [ %17, %15 ], [ %.pr, %12 ]
  %.0 = phi i32 [ %4, %15 ], [ %14, %12 ]
  %20 = icmp eq i32 %19, 1
  br i1 %20, label %21, label %37

21:                                               ; preds = %18
  %22 = call zeroext i8 @tvb_get_uint8(ptr noundef %3, i32 noundef %.0)
  %23 = add i32 %.0, 1
  %24 = getelementptr inbounds nuw i8, ptr %1, i64 24
  store ptr null, ptr %24, align 8
  %25 = icmp sgt i32 %5, 0
  br i1 %25, label %26, label %47

26:                                               ; preds = %21
  %27 = call ptr @proto_registrar_get_nth(i32 noundef %5)
  %28 = getelementptr inbounds nuw i8, ptr %27, i64 16
  %29 = load i32, ptr %28, align 8
  %30 = icmp eq i32 %29, 2
  br i1 %30, label %31, label %34

31:                                               ; preds = %26
  %32 = zext i8 %22 to i64
  %33 = call ptr @proto_tree_add_boolean(ptr noundef %2, i32 noundef %5, ptr noundef %3, i32 noundef %.0, i32 noundef 1, i64 noundef %32)
  store ptr %33, ptr %24, align 8
  br label %47

34:                                               ; preds = %26
  %.not = icmp ne i8 %22, 0
  %35 = zext i1 %.not to i32
  %36 = call ptr @proto_tree_add_uint(ptr noundef %2, i32 noundef %5, ptr noundef %3, i32 noundef %.0, i32 noundef 1, i32 noundef %35)
  store ptr %36, ptr %24, align 8
  br label %47

37:                                               ; preds = %18
  %38 = getelementptr inbounds nuw i8, ptr %1, i64 24
  store ptr null, ptr %38, align 8
  %39 = icmp sgt i32 %5, 0
  br i1 %39, label %40, label %47

40:                                               ; preds = %37
  %41 = call ptr @proto_registrar_get_nth(i32 noundef %5)
  %42 = getelementptr inbounds nuw i8, ptr %1, i64 16
  %43 = load ptr, ptr %42, align 8
  %44 = load i32, ptr %11, align 4
  %45 = load ptr, ptr %41, align 8
  %46 = call ptr (ptr, ptr, ptr, ptr, i32, i32, ptr, ...) @proto_tree_add_expert_format(ptr noundef %2, ptr noundef %43, ptr noundef nonnull @ei_ber_error_length, ptr noundef %3, i32 noundef %.0, i32 noundef %44, ptr noundef nonnull @.str.9, ptr noundef %45, i32 noundef %44)
  br label %47

47:                                               ; preds = %37, %40, %21, %34, %31
  %.043 = phi i8 [ %22, %31 ], [ %22, %34 ], [ %22, %21 ], [ 0, %40 ], [ 0, %37 ]
  %.1 = phi i32 [ %23, %31 ], [ %23, %34 ], [ %23, %21 ], [ %.0, %40 ], [ %.0, %37 ]
  %.not47 = icmp eq ptr %6, null
  br i1 %.not47, label %51, label %48

48:                                               ; preds = %47
  %49 = icmp ne i8 %.043, 0
  %50 = zext i1 %49 to i8
  store i8 %50, ptr %6, align 1
  br label %51

51:                                               ; preds = %48, %47
  call void @llvm.lifetime.end.p0(i64 4, ptr nonnull %11) #14
  call void @llvm.lifetime.end.p0(i64 4, ptr nonnull %10) #14
  call void @llvm.lifetime.end.p0(i64 1, ptr nonnull %9) #14
  call void @llvm.lifetime.end.p0(i64 1, ptr nonnull %8) #14
  ret i32 %.1
}